; Function Attrs: nounwind uwtable
define noalias ptr @l_Lean_expandExplicitBindersAux___boxed(ptr noundef %0, ptr noundef %1, ptr noundef %2, ptr noundef %3, ptr noundef %4, ptr noundef %5) local_unnamed_addr #0 {
  %7 = getelementptr i8, ptr %1, i64 8
  %.val.i = load i64, ptr %7, align 8, !tbaa !13
  %8 = shl i64 %.val.i, 1
  %9 = or disjoint i64 %8, 1
  %10 = inttoptr i64 %9 to ptr
  %11 = tail call noalias ptr @l_Lean_expandExplicitBindersAux_loop(ptr noundef %0, ptr noundef readonly %1, ptr noundef %2, ptr noundef nonnull %10, ptr nonnull poison, ptr noundef %3, ptr noundef readonly %4, ptr noundef %5)
  %12 = ptrtoint ptr %4 to i64
  %13 = and i64 %12, 1
  %.not = icmp eq i64 %13, 0
  br i1 %.not, label %14, label %lean_dec.exit9

14:                                               ; preds = %6
  %15 = load i32, ptr %4, align 4, !tbaa !5
  %16 = icmp sgt i32 %15, 1
  br i1 %16, label %17, label %19, !prof !10

17:                                               ; preds = %14
  %18 = add nsw i32 %15, -1
  store i32 %18, ptr %4, align 4, !tbaa !5
  br label %lean_dec.exit9

19:                                               ; preds = %14
  %.not.i = icmp eq i32 %15, 0
  br i1 %.not.i, label %lean_dec.exit9, label %20

20:                                               ; preds = %19
  tail call void @lean_dec_ref_cold(ptr noundef nonnull %4) #5
  br label %lean_dec.exit9

lean_dec.exit9:                                   ; preds = %20, %19, %17, %6
  %21 = ptrtoint ptr %1 to i64
  %22 = and i64 %21, 1
  %.not12 = icmp eq i64 %22, 0
  br i1 %.not12, label %23, label %lean_dec.exit

23:                                               ; preds = %lean_dec.exit9
  %24 = load i32, ptr %1, align 4, !tbaa !5
  %25 = icmp sgt i32 %24, 1
  br i1 %25, label %26, label %28, !prof !10

26:                                               ; preds = %23
  %27 = add nsw i32 %24, -1
  store i32 %27, ptr %1, align 4, !tbaa !5
  br label %lean_dec.exit

28:                                               ; preds = %23
  %.not.i10 = icmp eq i32 %24, 0
  br i1 %.not.i10, label %lean_dec.exit, label %29

29:                                               ; preds = %28
  tail call void @lean_dec_ref_cold(ptr noundef nonnull %1) #5
  br label %lean_dec.exit

lean_dec.exit:                                    ; preds = %29, %28, %26, %lean_dec.exit9
  ret ptr %11
}